; Function Attrs: nounwind uwtable
define dso_local void @putClientInPendingWriteQueue(ptr noundef %0) local_unnamed_addr #0 {
  %2 = getelementptr inbounds nuw i8, ptr %0, i64 8
  %3 = load i64, ptr %2, align 8, !tbaa !86
  %4 = and i64 %3, 2097152
  %.not = icmp eq i64 %4, 0
  br i1 %.not, label %5, label %15

5:                                                ; preds = %1
  %6 = getelementptr inbounds nuw i8, ptr %0, i64 268
  %7 = load i32, ptr %6, align 4, !tbaa !94
  switch i32 %7, label %15 [
    i32 0, label %11
    i32 12, label %11
    i32 9, label %8
  ]

8:                                                ; preds = %5
  %9 = getelementptr inbounds nuw i8, ptr %0, i64 272
  %10 = load i32, ptr %9, align 8, !tbaa !95
  %.not7 = icmp eq i32 %10, 0
  br i1 %.not7, label %11, label %15

11:                                               ; preds = %5, %5, %8
  %12 = or disjoint i64 %3, 2097152
  store i64 %12, ptr %2, align 8, !tbaa !86
  %13 = load ptr, ptr getelementptr inbounds nuw (i8, ptr @server, i64 1448), align 8, !tbaa !119
  %14 = getelementptr inbounds nuw i8, ptr %0, i64 736
  tail call void @listLinkNodeHead(ptr noundef %13, ptr noundef nonnull %14) #26
  br label %15

15:                                               ; preds = %5, %11, %8, %1
  ret void
}